# SymbolsHelper-Confirmed: 6.0.0 amd64
libKF6Package.so.6 libkf6package6 #MINVER#
* Build-Depends-Package: libkf6package-dev
 _ZN8KPackage10PackageJob11qt_metacallEN11QMetaObject4CallEiPPv@Base 6.0.0
 _ZN8KPackage10PackageJob11qt_metacastEPKc@Base 6.0.0
 _ZN8KPackage10PackageJob16staticMetaObjectE@Base 6.0.0
 _ZN8KPackage10PackageJob5startEv@Base 6.0.0
 _ZN8KPackage10PackageJob6updateERK7QStringS3_S3_@Base 6.0.0
 _ZN8KPackage10PackageJob7installERK7QStringS3_S3_@Base 6.0.0
 _ZN8KPackage10PackageJob9uninstallERK7QStringS3_S3_@Base 6.0.0
 _ZN8KPackage10PackageJobD0Ev@Base 6.0.0
 _ZN8KPackage10PackageJobD1Ev@Base 6.0.0
 _ZN8KPackage10PackageJobD2Ev@Base 6.0.0
 _ZN8KPackage13PackageLoader11loadPackageERK7QStringS3_@Base 6.0.0
 _ZN8KPackage13PackageLoader12findPackagesERK7QStringS3_St8functionIFbRK15KPluginMetaDataEE@Base 6.0.0
 _ZN8KPackage13PackageLoader12listPackagesERK7QStringS3_@Base 6.0.0
 _ZN8KPackage13PackageLoader13listKPackagesERK7QStringS3_@Base 6.0.0
 _ZN8KPackage13PackageLoader20listPackagesMetadataERK7QStringS3_@Base 6.0.0
 _ZN8KPackage13PackageLoader20loadPackageStructureERK7QString@Base 6.0.0
 _ZN8KPackage13PackageLoader24addKnownPackageStructureERK7QStringPNS_16PackageStructureE@Base 6.0.0
 _ZN8KPackage13PackageLoader4selfEv@Base 6.0.0
 _ZN8KPackage13PackageLoaderC1Ev@Base 6.0.0
 _ZN8KPackage13PackageLoaderC2Ev@Base 6.0.0
 _ZN8KPackage13PackageLoaderD0Ev@Base 6.0.0
 _ZN8KPackage13PackageLoaderD1Ev@Base 6.0.0
 _ZN8KPackage13PackageLoaderD2Ev@Base 6.0.0
 _ZN8KPackage16PackageStructure11initPackageEPNS_7PackageE@Base 6.0.0
 _ZN8KPackage16PackageStructure11pathChangedEPNS_7PackageE@Base 6.0.0
 _ZN8KPackage16PackageStructure11qt_metacallEN11QMetaObject4CallEiPPv@Base 6.0.0
 _ZN8KPackage16PackageStructure11qt_metacastEPKc@Base 6.0.0
 _ZN8KPackage16PackageStructure16staticMetaObjectE@Base 6.0.0
 _ZN8KPackage16PackageStructureC1EP7QObjectRK5QListI8QVariantE@Base 6.0.0
 _ZN8KPackage16PackageStructureC2EP7QObjectRK5QListI8QVariantE@Base 6.0.0
 _ZN8KPackage16PackageStructureD0Ev@Base 6.0.0
 _ZN8KPackage16PackageStructureD1Ev@Base 6.0.0
 _ZN8KPackage16PackageStructureD2Ev@Base 6.0.0
 _ZN8KPackage7Package11setMetadataERK15KPluginMetaData@Base 6.0.0
 _ZN8KPackage7Package11setRequiredERK10QByteArrayb@Base 6.0.0
 _ZN8KPackage7Package12setMimeTypesERK10QByteArrayRK5QListI7QStringE@Base 6.0.0
 _ZN8KPackage7Package16removeDefinitionERK10QByteArray@Base 6.0.0
 _ZN8KPackage7Package17addFileDefinitionERK10QByteArrayRK7QString@Base 6.0.0
 _ZN8KPackage7Package18setFallbackPackageERKS0_@Base 6.0.0
 _ZN8KPackage7Package19setDefaultMimeTypesERK5QListI7QStringE@Base 6.0.0
 _ZN8KPackage7Package21setAllowExternalPathsEb@Base 6.0.0
 _ZN8KPackage7Package21setDefaultPackageRootERK7QString@Base 6.0.0
 _ZN8KPackage7Package22addDirectoryDefinitionERK10QByteArrayRK7QString@Base 6.0.0
 _ZN8KPackage7Package22setContentsPrefixPathsERK5QListI7QStringE@Base 6.0.0
 _ZN8KPackage7Package7setPathERK7QString@Base 6.0.0
 _ZN8KPackage7PackageC1EPNS_16PackageStructureE@Base 6.0.0
 _ZN8KPackage7PackageC1ERKS0_@Base 6.0.0
 _ZN8KPackage7PackageC2EPNS_16PackageStructureE@Base 6.0.0
 _ZN8KPackage7PackageC2ERKS0_@Base 6.0.0
 _ZN8KPackage7PackageD0Ev@Base 6.0.0
 _ZN8KPackage7PackageD1Ev@Base 6.0.0
 _ZN8KPackage7PackageD2Ev@Base 6.0.0
 _ZN8KPackage7PackageaSERKS0_@Base 6.0.0
 _ZNK8KPackage10PackageJob10metaObjectEv@Base 6.0.0
 _ZNK8KPackage10PackageJob7packageEv@Base 6.0.0
 _ZNK8KPackage16PackageStructure10metaObjectEv@Base 6.0.0
 _ZNK8KPackage7Package10isRequiredERK10QByteArray@Base 6.0.0
 _ZNK8KPackage7Package11directoriesEv@Base 6.0.0
 _ZNK8KPackage7Package13requiredFilesEv@Base 6.0.0
 _ZNK8KPackage7Package15fallbackPackageEv@Base 6.0.0
 _ZNK8KPackage7Package17cryptographicHashEN18QCryptographicHash9AlgorithmE@Base 6.0.0
 _ZNK8KPackage7Package17hasValidStructureEv@Base 6.0.0
 _ZNK8KPackage7Package18allowExternalPathsEv@Base 6.0.0
 _ZNK8KPackage7Package18defaultPackageRootEv@Base 6.0.0
 _ZNK8KPackage7Package19contentsPrefixPathsEv@Base 6.0.0
 _ZNK8KPackage7Package19requiredDirectoriesEv@Base 6.0.0
 _ZNK8KPackage7Package4pathEv@Base 6.0.0
 _ZNK8KPackage7Package5filesEv@Base 6.0.0
 _ZNK8KPackage7Package7fileUrlERK10QByteArrayRK7QString@Base 6.0.0
 _ZNK8KPackage7Package7isValidEv@Base 6.0.0
 _ZNK8KPackage7Package8filePathERK10QByteArrayRK7QString@Base 6.0.0
 _ZNK8KPackage7Package8metadataEv@Base 6.0.0
 _ZNK8KPackage7Package9entryListERK10QByteArray@Base 6.0.0
 _ZNK8KPackage7Package9mimeTypesERK10QByteArray@Base 6.0.0
 (optional=templinst)_ZNSt10_HashtableI7QStringS0_SaIS0_ENSt8__detail9_IdentityESt8equal_toIS0_ESt4hashIS0_ENS2_18_Mod_range_hashingENS2_20_Default_ranged_hashENS2_20_Prime_rehash_policyENS2_17_Hashtable_traitsILb0ELb1ELb1EEEE21_M_insert_unique_nodeEmmPNS2_10_Hash_nodeIS0_Lb0EEEm@Base 6.0.0
 _ZTIN8KPackage10PackageJobE@Base 6.0.0
 _ZTIN8KPackage13PackageLoaderE@Base 6.0.0
 _ZTIN8KPackage16PackageStructureE@Base 6.0.0
 _ZTIN8KPackage7PackageE@Base 6.0.0
 _ZTSN8KPackage10PackageJobE@Base 6.0.0
 _ZTSN8KPackage13PackageLoaderE@Base 6.0.0
 _ZTSN8KPackage16PackageStructureE@Base 6.0.0
 _ZTSN8KPackage7PackageE@Base 6.0.0
 _ZTVN8KPackage10PackageJobE@Base 6.0.0
 _ZTVN8KPackage13PackageLoaderE@Base 6.0.0
 _ZTVN8KPackage16PackageStructureE@Base 6.0.0
 _ZTVN8KPackage7PackageE@Base 6.0.0
